; Function Attrs: mustprogress nofree norecurse nosync nounwind willreturn memory(read, inaccessiblemem: none) uwtable
define hidden noundef i32 @_ZN3opt7context14adjust_unknownE5lbool(ptr nocapture noundef nonnull readonly align 8 dereferenceable(792) %this, i32 noundef %r) local_unnamed_addr #11 align 2 {
entry:
  %cmp = icmp eq i32 %r, 1
  br i1 %cmp, label %land.lhs.true, label %if.end

land.lhs.true:                                    ; preds = %entry
  %m_opt_solver = getelementptr inbounds i8, ptr %this, i64 224
  %0 = load ptr, ptr %m_opt_solver, align 8
  %tobool.not = icmp eq ptr %0, null
  br i1 %tobool.not, label %if.end, label %land.lhs.true2

land.lhs.true2:                                   ; preds = %land.lhs.true
  %m_was_unknown.i = getelementptr inbounds i8, ptr %0, i64 1033
  %1 = load i8, ptr %m_was_unknown.i, align 1
  %2 = and i8 %1, 1
  %3 = xor i8 %2, 1
  %spec.select = zext nneg i8 %3 to i32
  br label %if.end

if.end:                                           ; preds = %land.lhs.true2, %land.lhs.true, %entry
  %r.addr.0 = phi i32 [ 1, %land.lhs.true ], [ %r, %entry ], [ %spec.select, %land.lhs.true2 ]
  ret i32 %r.addr.0
}